; Function Attrs: mustprogress uwtable
define internal void @_ZN10open_spiel9gin_rummy12_GLOBAL__N_17FactoryERKSt3mapINSt7__cxx1112basic_stringIcSt11char_traitsIcESaIcEEENS_13GameParameterESt4lessIS8_ESaISt4pairIKS8_S9_EEE(ptr dead_on_unwind noalias writable sret(%"class.std::shared_ptr") align 8 %0, ptr noundef nonnull align 8 dereferenceable(48) %1) #3 personality ptr @__gxx_personality_v0 {
  %3 = tail call noalias noundef nonnull dereferenceable(344) ptr @_Znwm(i64 noundef 344) #27
  invoke void @_ZN10open_spiel9gin_rummy12GinRummyGameC1ERKSt3mapINSt7__cxx1112basic_stringIcSt11char_traitsIcESaIcEEENS_13GameParameterESt4lessIS8_ESaISt4pairIKS8_S9_EEE(ptr noundef nonnull align 8 dereferenceable(340) %3, ptr noundef nonnull align 8 dereferenceable(48) %1)
          to label %4 unwind label %5

4:                                                ; preds = %2
  tail call void @_ZNSt12__shared_ptrIKN10open_spiel4GameELN9__gnu_cxx12_Lock_policyE2EEC2INS0_9gin_rummy12GinRummyGameEvEEPT_(ptr noundef nonnull align 8 dereferenceable(16) %0, ptr noundef nonnull %3)
  ret void

5:                                                ; preds = %2
  %6 = landingpad { ptr, i32 }
          cleanup
  tail call void @_ZdlPvm(ptr noundef nonnull %3, i64 noundef 344) #28
  resume { ptr, i32 } %6
}